target datalayout = "e-m:e-p270:32:32-p271:32:32-p272:64:64-i64:64-i128:128-f80:128-n8:16:32:64-S128"
target triple = "x86_64-pc-linux-gnu"

%struct.strbuf = type { i64, i64, ptr }
%struct.option = type { i32, i32, ptr, ptr, ptr, ptr, i32, ptr, i64, ptr, i64, ptr }
%struct.string_list = type { ptr, i64, i64, i8, ptr }
%struct.repository = type { ptr, ptr, ptr, ptr, ptr, %struct.strmap, %struct.strmap, %struct.repo_path_cache, ptr, ptr, ptr, ptr, %struct.repo_settings, ptr, ptr, ptr, ptr, ptr, ptr, i32, i32, i32, ptr, ptr, i32, i32, i8 }
%struct.strmap = type { %struct.hashmap, ptr, i8 }
%struct.hashmap = type { ptr, ptr, ptr, i32, i32, i32, i32, i8 }
%struct.repo_path_cache = type { ptr, ptr, ptr, ptr, ptr, ptr, ptr }
%struct.repo_settings = type { i32, i32, i32, i32, i32, i32, i32, i32, i32, i32, i32, i32, ptr, i32, i32, i32, i32, i32, i32, i32, i64, i64, i64 }
%struct.string_list_item = type { ptr, ptr }
%struct.config_set = type { %struct.hashmap, i32, %struct.configset_list }
%struct.configset_list = type { ptr, i32, i32 }

@.str.20 = private unnamed_addr constant [6 x i8] c"force\00", align 1
@the_repository = external global ptr, align 8
@.str.265 = private unnamed_addr constant [12 x i8] c"config-file\00", align 1
@.str.266 = private unnamed_addr constant [5 x i8] c"file\00", align 1
@.str.267 = private unnamed_addr constant [22 x i8] c"use given config file\00", align 1
@.str.268 = private unnamed_addr constant [17 x i8] c"maintenance.repo\00", align 1
@.str.271 = private unnamed_addr constant [14 x i8] c"$HOME not set\00", align 1
@__const.get_maintpath.sb = private unnamed_addr constant %struct.strbuf { i64 0, i64 0, ptr @strbuf_slopbuf }, align 8
@.str.274 = private unnamed_addr constant [53 x i8] c"return success even if repository was not registered\00", align 1
@builtin_maintenance_unregister_usage = internal constant [2 x ptr] [ptr @.str.277, ptr null], align 16
@.str.275 = private unnamed_addr constant [35 x i8] c"unable to unset '%s' value of '%s'\00", align 1
@.str.276 = private unnamed_addr constant [34 x i8] c"repository '%s' is not registered\00", align 1

; Function Attrs: inlinehint nounwind uwtable
define internal i32 @git_config_set_multivar_in_file_gently(ptr noundef %0, ptr noundef %1, ptr noundef %2, ptr noundef %3, ptr noundef %4, i32 noundef %5) #6 {
  %7 = alloca ptr, align 8
  %8 = alloca ptr, align 8
  %9 = alloca ptr, align 8
  %10 = alloca ptr, align 8
  %11 = alloca ptr, align 8
  %12 = alloca i32, align 4
  store ptr %0, ptr %7, align 8, !tbaa !11
  store ptr %1, ptr %8, align 8, !tbaa !11
  store ptr %2, ptr %9, align 8, !tbaa !11
  store ptr %3, ptr %10, align 8, !tbaa !11
  store ptr %4, ptr %11, align 8, !tbaa !11
  store i32 %5, ptr %12, align 4, !tbaa !4
  %13 = load ptr, ptr @the_repository, align 8, !tbaa !13
  %14 = load ptr, ptr %7, align 8, !tbaa !11
  %15 = load ptr, ptr %8, align 8, !tbaa !11
  %16 = load ptr, ptr %9, align 8, !tbaa !11
  %17 = load ptr, ptr %10, align 8, !tbaa !11
  %18 = load ptr, ptr %11, align 8, !tbaa !11
  %19 = load i32, ptr %12, align 4, !tbaa !4
  %20 = call i32 @repo_config_set_multivar_in_file_gently(ptr noundef %13, ptr noundef %14, ptr noundef %15, ptr noundef %16, ptr noundef %17, ptr noundef %18, i32 noundef %19)
  ret i32 %20
}

; Function Attrs: inlinehint nounwind uwtable
define internal i32 @git_config_get_string_multi(ptr noundef %0, ptr noundef %1) #6 {
  %3 = alloca ptr, align 8
  %4 = alloca ptr, align 8
  store ptr %0, ptr %3, align 8, !tbaa !11
  store ptr %1, ptr %4, align 8, !tbaa !227
  %5 = load ptr, ptr @the_repository, align 8, !tbaa !13
  %6 = load ptr, ptr %3, align 8, !tbaa !11
  %7 = load ptr, ptr %4, align 8, !tbaa !227
  %8 = call i32 @repo_config_get_string_multi(ptr noundef %5, ptr noundef %6, ptr noundef %7)
  ret i32 %8
}

; Function Attrs: nounwind uwtable
define internal ptr @get_maintpath() #0 {
  %1 = alloca %struct.strbuf, align 8
  %2 = alloca ptr, align 8
  call void @llvm.lifetime.start.p0(i64 24, ptr %1) #11
  call void @llvm.memcpy.p0.p0.i64(ptr align 8 %1, ptr align 8 @__const.get_maintpath.sb, i64 24, i1 false)
  call void @llvm.lifetime.start.p0(i64 8, ptr %2) #11
  %3 = load ptr, ptr @the_repository, align 8, !tbaa !13
  %4 = getelementptr inbounds nuw %struct.repository, ptr %3, i32 0, i32 10
  %5 = load ptr, ptr %4, align 8, !tbaa !225
  %6 = icmp ne ptr %5, null
  br i1 %6, label %7, label %11

7:                                                ; preds = %0
  %8 = load ptr, ptr @the_repository, align 8, !tbaa !13
  %9 = getelementptr inbounds nuw %struct.repository, ptr %8, i32 0, i32 10
  %10 = load ptr, ptr %9, align 8, !tbaa !225
  br label %15

11:                                               ; preds = %0
  %12 = load ptr, ptr @the_repository, align 8, !tbaa !13
  %13 = getelementptr inbounds nuw %struct.repository, ptr %12, i32 0, i32 0
  %14 = load ptr, ptr %13, align 8, !tbaa !226
  br label %15

15:                                               ; preds = %11, %7
  %16 = phi ptr [ %10, %7 ], [ %14, %11 ]
  store ptr %16, ptr %2, align 8, !tbaa !11
  %17 = load ptr, ptr %2, align 8, !tbaa !11
  %18 = call ptr @strbuf_realpath(ptr noundef %1, ptr noundef %17, i32 noundef 1)
  %19 = call ptr @strbuf_detach(ptr noundef %1, ptr noundef null)
  call void @llvm.lifetime.end.p0(i64 8, ptr %2) #11
  call void @llvm.lifetime.end.p0(i64 24, ptr %1) #11
  ret ptr %19
}

; Function Attrs: nounwind uwtable
define internal i32 @maintenance_unregister(i32 noundef %0, ptr noundef %1, ptr noundef %2, ptr noundef %3) #0 {
  %5 = alloca i32, align 4
  %6 = alloca ptr, align 8
  %7 = alloca ptr, align 8
  %8 = alloca ptr, align 8
  %9 = alloca i32, align 4
  %10 = alloca ptr, align 8
  %11 = alloca [3 x %struct.option], align 16
  %12 = alloca ptr, align 8
  %13 = alloca ptr, align 8
  %14 = alloca i32, align 4
  %15 = alloca ptr, align 8
  %16 = alloca ptr, align 8
  %17 = alloca %struct.config_set, align 8
  %18 = alloca i32, align 4
  %19 = alloca ptr, align 8
  store i32 %0, ptr %5, align 4, !tbaa !4
  store ptr %1, ptr %6, align 8, !tbaa !8
  store ptr %2, ptr %7, align 8, !tbaa !11
  store ptr %3, ptr %8, align 8, !tbaa !13
  call void @llvm.lifetime.start.p0(i64 4, ptr %9) #11
  store i32 0, ptr %9, align 4, !tbaa !4
  call void @llvm.lifetime.start.p0(i64 8, ptr %10) #11
  store ptr null, ptr %10, align 8, !tbaa !11
  call void @llvm.lifetime.start.p0(i64 264, ptr %11) #11
  %20 = getelementptr inbounds nuw %struct.option, ptr %11, i32 0, i32 0
  store i32 10, ptr %20, align 8, !tbaa !34
  %21 = getelementptr inbounds nuw %struct.option, ptr %11, i32 0, i32 1
  store i32 0, ptr %21, align 4, !tbaa !36
  %22 = getelementptr inbounds nuw %struct.option, ptr %11, i32 0, i32 2
  store ptr @.str.265, ptr %22, align 8, !tbaa !37
  %23 = getelementptr inbounds nuw %struct.option, ptr %11, i32 0, i32 3
  store ptr %10, ptr %23, align 8, !tbaa !38
  %24 = getelementptr inbounds nuw %struct.option, ptr %11, i32 0, i32 4
  store ptr @.str.266, ptr %24, align 8, !tbaa !39
  %25 = getelementptr inbounds nuw %struct.option, ptr %11, i32 0, i32 5
  store ptr @.str.267, ptr %25, align 8, !tbaa !40
  %26 = getelementptr inbounds nuw %struct.option, ptr %11, i32 0, i32 6
  store i32 0, ptr %26, align 8, !tbaa !41
  %27 = getelementptr i8, ptr %11, i64 44
  call void @llvm.memset.p0.i64(ptr align 4 %27, i8 0, i64 4, i1 false)
  %28 = getelementptr inbounds nuw %struct.option, ptr %11, i32 0, i32 7
  store ptr null, ptr %28, align 8, !tbaa !42
  %29 = getelementptr inbounds nuw %struct.option, ptr %11, i32 0, i32 8
  store i64 0, ptr %29, align 8, !tbaa !43
  %30 = getelementptr inbounds nuw %struct.option, ptr %11, i32 0, i32 9
  store ptr null, ptr %30, align 8, !tbaa !44
  %31 = getelementptr inbounds nuw %struct.option, ptr %11, i32 0, i32 10
  store i64 0, ptr %31, align 8, !tbaa !45
  %32 = getelementptr inbounds nuw %struct.option, ptr %11, i32 0, i32 11
  store ptr null, ptr %32, align 8, !tbaa !46
  %33 = getelementptr inbounds %struct.option, ptr %11, i64 1
  %34 = getelementptr inbounds nuw %struct.option, ptr %33, i32 0, i32 0
  store i32 8, ptr %34, align 8, !tbaa !34
  %35 = getelementptr inbounds nuw %struct.option, ptr %33, i32 0, i32 1
  store i32 102, ptr %35, align 4, !tbaa !36
  %36 = getelementptr inbounds nuw %struct.option, ptr %33, i32 0, i32 2
  store ptr @.str.20, ptr %36, align 8, !tbaa !37
  %37 = getelementptr inbounds nuw %struct.option, ptr %33, i32 0, i32 3
  store ptr %9, ptr %37, align 8, !tbaa !38
  %38 = getelementptr inbounds nuw %struct.option, ptr %33, i32 0, i32 4
  store ptr null, ptr %38, align 8, !tbaa !39
  %39 = getelementptr inbounds nuw %struct.option, ptr %33, i32 0, i32 5
  store ptr @.str.274, ptr %39, align 8, !tbaa !40
  %40 = getelementptr inbounds nuw %struct.option, ptr %33, i32 0, i32 6
  store i32 514, ptr %40, align 8, !tbaa !41
  %41 = getelementptr i8, ptr %33, i64 44
  call void @llvm.memset.p0.i64(ptr align 4 %41, i8 0, i64 4, i1 false)
  %42 = getelementptr inbounds nuw %struct.option, ptr %33, i32 0, i32 7
  store ptr null, ptr %42, align 8, !tbaa !42
  %43 = getelementptr inbounds nuw %struct.option, ptr %33, i32 0, i32 8
  store i64 0, ptr %43, align 8, !tbaa !43
  %44 = getelementptr inbounds nuw %struct.option, ptr %33, i32 0, i32 9
  store ptr null, ptr %44, align 8, !tbaa !44
  %45 = getelementptr inbounds nuw %struct.option, ptr %33, i32 0, i32 10
  store i64 0, ptr %45, align 8, !tbaa !45
  %46 = getelementptr inbounds nuw %struct.option, ptr %33, i32 0, i32 11
  store ptr null, ptr %46, align 8, !tbaa !46
  %47 = getelementptr inbounds %struct.option, ptr %11, i64 2
  call void @llvm.memset.p0.i64(ptr align 8 %47, i8 0, i64 88, i1 false)
  %48 = getelementptr inbounds nuw %struct.option, ptr %47, i32 0, i32 0
  store i32 0, ptr %48, align 8, !tbaa !34
  call void @llvm.lifetime.start.p0(i64 8, ptr %12) #11
  store ptr @.str.268, ptr %12, align 8, !tbaa !11
  call void @llvm.lifetime.start.p0(i64 8, ptr %13) #11
  %49 = call ptr @get_maintpath()
  store ptr %49, ptr %13, align 8, !tbaa !11
  call void @llvm.lifetime.start.p0(i64 4, ptr %14) #11
  store i32 0, ptr %14, align 4, !tbaa !4
  call void @llvm.lifetime.start.p0(i64 8, ptr %15) #11
  call void @llvm.lifetime.start.p0(i64 8, ptr %16) #11
  call void @llvm.lifetime.start.p0(i64 72, ptr %17) #11
  call void @llvm.memset.p0.i64(ptr align 8 %17, i8 0, i64 72, i1 false)
  %50 = load i32, ptr %5, align 4, !tbaa !4
  %51 = load ptr, ptr %6, align 8, !tbaa !8
  %52 = load ptr, ptr %7, align 8, !tbaa !11
  %53 = getelementptr inbounds [3 x %struct.option], ptr %11, i64 0, i64 0
  %54 = call i32 @parse_options(i32 noundef %50, ptr noundef %51, ptr noundef %52, ptr noundef %53, ptr noundef @builtin_maintenance_unregister_usage, i32 noundef 0)
  store i32 %54, ptr %5, align 4, !tbaa !4
  %55 = load i32, ptr %5, align 4, !tbaa !4
  %56 = icmp ne i32 %55, 0
  br i1 %56, label %57, label %59

57:                                               ; preds = %4
  %58 = getelementptr inbounds [3 x %struct.option], ptr %11, i64 0, i64 0
  call void @usage_with_options(ptr noundef @builtin_maintenance_unregister_usage, ptr noundef %58) #12
  unreachable

59:                                               ; preds = %4
  %60 = load ptr, ptr %10, align 8, !tbaa !11
  %61 = icmp ne ptr %60, null
  br i1 %61, label %62, label %65

62:                                               ; preds = %59
  call void @git_configset_init(ptr noundef %17)
  %63 = load ptr, ptr %10, align 8, !tbaa !11
  %64 = call i32 @git_configset_add_file(ptr noundef %17, ptr noundef %63)
  br label %65

65:                                               ; preds = %62, %59
  %66 = load ptr, ptr %10, align 8, !tbaa !11
  %67 = icmp ne ptr %66, null
  br i1 %67, label %68, label %72

68:                                               ; preds = %65
  %69 = load ptr, ptr %12, align 8, !tbaa !11
  %70 = call i32 @git_configset_get_string_multi(ptr noundef %17, ptr noundef %69, ptr noundef %16)
  %71 = icmp ne i32 %70, 0
  br i1 %71, label %108, label %76

72:                                               ; preds = %65
  %73 = load ptr, ptr %12, align 8, !tbaa !11
  %74 = call i32 @git_config_get_string_multi(ptr noundef %73, ptr noundef %16)
  %75 = icmp ne i32 %74, 0
  br i1 %75, label %108, label %76

76:                                               ; preds = %72, %68
  %77 = load ptr, ptr %16, align 8, !tbaa !95
  %78 = getelementptr inbounds nuw %struct.string_list, ptr %77, i32 0, i32 0
  %79 = load ptr, ptr %78, align 8, !tbaa !117
  store ptr %79, ptr %15, align 8, !tbaa !137
  br label %80

80:                                               ; preds = %104, %76
  %81 = load ptr, ptr %15, align 8, !tbaa !137
  %82 = icmp ne ptr %81, null
  br i1 %82, label %83, label %93

83:                                               ; preds = %80
  %84 = load ptr, ptr %15, align 8, !tbaa !137
  %85 = load ptr, ptr %16, align 8, !tbaa !95
  %86 = getelementptr inbounds nuw %struct.string_list, ptr %85, i32 0, i32 0
  %87 = load ptr, ptr %86, align 8, !tbaa !117
  %88 = load ptr, ptr %16, align 8, !tbaa !95
  %89 = getelementptr inbounds nuw %struct.string_list, ptr %88, i32 0, i32 1
  %90 = load i64, ptr %89, align 8, !tbaa !55
  %91 = getelementptr inbounds nuw %struct.string_list_item, ptr %87, i64 %90
  %92 = icmp ult ptr %84, %91
  br label %93

93:                                               ; preds = %83, %80
  %94 = phi i1 [ false, %80 ], [ %92, %83 ]
  br i1 %94, label %95, label %107

95:                                               ; preds = %93
  %96 = load ptr, ptr %13, align 8, !tbaa !11
  %97 = load ptr, ptr %15, align 8, !tbaa !137
  %98 = getelementptr inbounds nuw %struct.string_list_item, ptr %97, i32 0, i32 0
  %99 = load ptr, ptr %98, align 8, !tbaa !118
  %100 = call i32 @strcmp(ptr noundef %96, ptr noundef %99) #13
  %101 = icmp ne i32 %100, 0
  br i1 %101, label %103, label %102

102:                                              ; preds = %95
  store i32 1, ptr %14, align 4, !tbaa !4
  br label %107

103:                                              ; preds = %95
  br label %104

104:                                              ; preds = %103
  %105 = load ptr, ptr %15, align 8, !tbaa !137
  %106 = getelementptr inbounds nuw %struct.string_list_item, ptr %105, i32 1
  store ptr %106, ptr %15, align 8, !tbaa !137
  br label %80, !llvm.loop !139

107:                                              ; preds = %102, %93
  br label %108

108:                                              ; preds = %107, %72, %68
  %109 = load i32, ptr %14, align 4, !tbaa !4
  %110 = icmp ne i32 %109, 0
  br i1 %110, label %111, label %141

111:                                              ; preds = %108
  call void @llvm.lifetime.start.p0(i64 4, ptr %18) #11
  call void @llvm.lifetime.start.p0(i64 8, ptr %19) #11
  store ptr null, ptr %19, align 8, !tbaa !11
  %112 = load ptr, ptr %10, align 8, !tbaa !11
  %113 = icmp ne ptr %112, null
  br i1 %113, label %117, label %114

114:                                              ; preds = %111
  %115 = call ptr @git_global_config()
  store ptr %115, ptr %19, align 8, !tbaa !11
  %116 = load ptr, ptr %19, align 8, !tbaa !11
  store ptr %116, ptr %10, align 8, !tbaa !11
  br label %117

117:                                              ; preds = %114, %111
  %118 = load ptr, ptr %10, align 8, !tbaa !11
  %119 = icmp ne ptr %118, null
  br i1 %119, label %122, label %120

120:                                              ; preds = %117
  %121 = call ptr @_(ptr noundef @.str.271)
  call void (ptr, ...) @die(ptr noundef %121) #12
  unreachable

122:                                              ; preds = %117
  %123 = load ptr, ptr %10, align 8, !tbaa !11
  %124 = load ptr, ptr %12, align 8, !tbaa !11
  %125 = load ptr, ptr %13, align 8, !tbaa !11
  %126 = call i32 @git_config_set_multivar_in_file_gently(ptr noundef %123, ptr noundef %124, ptr noundef null, ptr noundef %125, ptr noundef null, i32 noundef 3)
  store i32 %126, ptr %18, align 4, !tbaa !4
  %127 = load ptr, ptr %19, align 8, !tbaa !11
  call void @free(ptr noundef %127) #11
  %128 = load i32, ptr %18, align 4, !tbaa !4
  %129 = icmp ne i32 %128, 0
  br i1 %129, label %130, label %140

130:                                              ; preds = %122
  %131 = load i32, ptr %9, align 4, !tbaa !4
  %132 = icmp ne i32 %131, 0
  br i1 %132, label %133, label %136

133:                                              ; preds = %130
  %134 = load i32, ptr %18, align 4, !tbaa !4
  %135 = icmp eq i32 %134, 5
  br i1 %135, label %136, label %140

136:                                              ; preds = %133, %130
  %137 = call ptr @_(ptr noundef @.str.275)
  %138 = load ptr, ptr %12, align 8, !tbaa !11
  %139 = load ptr, ptr %13, align 8, !tbaa !11
  call void (ptr, ...) @die(ptr noundef %137, ptr noundef %138, ptr noundef %139) #12
  unreachable

140:                                              ; preds = %133, %122
  call void @llvm.lifetime.end.p0(i64 8, ptr %19) #11
  call void @llvm.lifetime.end.p0(i64 4, ptr %18) #11
  br label %148

141:                                              ; preds = %108
  %142 = load i32, ptr %9, align 4, !tbaa !4
  %143 = icmp ne i32 %142, 0
  br i1 %143, label %147, label %144

144:                                              ; preds = %141
  %145 = call ptr @_(ptr noundef @.str.276)
  %146 = load ptr, ptr %13, align 8, !tbaa !11
  call void (ptr, ...) @die(ptr noundef %145, ptr noundef %146) #12
  unreachable

147:                                              ; preds = %141
  br label %148

148:                                              ; preds = %147, %140
  call void @git_configset_clear(ptr noundef %17)
  %149 = load ptr, ptr %13, align 8, !tbaa !11
  call void @free(ptr noundef %149) #11
  call void @llvm.lifetime.end.p0(i64 72, ptr %17) #11
  call void @llvm.lifetime.end.p0(i64 8, ptr %16) #11
  call void @llvm.lifetime.end.p0(i64 8, ptr %15) #11
  call void @llvm.lifetime.end.p0(i64 4, ptr %14) #11
  call void @llvm.lifetime.end.p0(i64 8, ptr %13) #11
  call void @llvm.lifetime.end.p0(i64 8, ptr %12) #11
  call void @llvm.lifetime.end.p0(i64 264, ptr %11) #11
  call void @llvm.lifetime.end.p0(i64 8, ptr %10) #11
  call void @llvm.lifetime.end.p0(i64 4, ptr %9) #11
  ret i32 0
}