; Function Attrs: nounwind uwtable
define internal noundef i32 @maintenance_unregister(i32 noundef %0, ptr noundef %1, ptr noundef %2, ptr readnone captures(none) %3) #0 {
  %5 = alloca %struct.strbuf, align 8
  %6 = alloca i32, align 4
  %7 = alloca ptr, align 8
  %8 = alloca [3 x %struct.option], align 16
  %9 = alloca ptr, align 8
  %10 = alloca %struct.config_set, align 8
  call void @llvm.lifetime.start.p0(i64 4, ptr nonnull %6) #21
  store i32 0, ptr %6, align 4, !tbaa !4
  call void @llvm.lifetime.start.p0(i64 8, ptr nonnull %7) #21
  store ptr null, ptr %7, align 8, !tbaa !26
  call void @llvm.lifetime.start.p0(i64 264, ptr nonnull %8) #21
  store i32 10, ptr %8, align 16, !tbaa !27
  %11 = getelementptr inbounds nuw i8, ptr %8, i64 4
  store i32 0, ptr %11, align 4, !tbaa !29
  %12 = getelementptr inbounds nuw i8, ptr %8, i64 8
  store ptr @.str.265, ptr %12, align 8, !tbaa !30
  %13 = getelementptr inbounds nuw i8, ptr %8, i64 16
  store ptr %7, ptr %13, align 16, !tbaa !31
  %14 = getelementptr inbounds nuw i8, ptr %8, i64 24
  store ptr @.str.266, ptr %14, align 8, !tbaa !32
  %15 = getelementptr inbounds nuw i8, ptr %8, i64 32
  store ptr @.str.267, ptr %15, align 16, !tbaa !33
  %16 = getelementptr inbounds nuw i8, ptr %8, i64 40
  %17 = getelementptr inbounds nuw i8, ptr %8, i64 88
  call void @llvm.memset.p0.i64(ptr noundef nonnull align 8 dereferenceable(48) %16, i8 0, i64 48, i1 false)
  store i32 8, ptr %17, align 8, !tbaa !27
  %18 = getelementptr inbounds nuw i8, ptr %8, i64 92
  store i32 102, ptr %18, align 4, !tbaa !29
  %19 = getelementptr inbounds nuw i8, ptr %8, i64 96
  store ptr @.str.20, ptr %19, align 16, !tbaa !30
  %20 = getelementptr inbounds nuw i8, ptr %8, i64 104
  store ptr %6, ptr %20, align 8, !tbaa !31
  %21 = getelementptr inbounds nuw i8, ptr %8, i64 112
  store ptr null, ptr %21, align 16, !tbaa !32
  %22 = getelementptr inbounds nuw i8, ptr %8, i64 120
  store ptr @.str.274, ptr %22, align 8, !tbaa !33
  %23 = getelementptr inbounds nuw i8, ptr %8, i64 128
  store i32 514, ptr %23, align 16, !tbaa !34
  %24 = getelementptr inbounds nuw i8, ptr %8, i64 132
  call void @llvm.memset.p0.i64(ptr noundef nonnull align 4 dereferenceable(132) %24, i8 0, i64 132, i1 false)
  call void @llvm.lifetime.start.p0(i64 24, ptr nonnull %5) #21
  call void @llvm.memcpy.p0.p0.i64(ptr noundef nonnull align 8 dereferenceable(24) %5, ptr noundef nonnull align 8 dereferenceable(24) @__const.get_maintpath.sb, i64 24, i1 false)
  %25 = load ptr, ptr @the_repository, align 8, !tbaa !42
  %26 = getelementptr inbounds nuw i8, ptr %25, i64 240
  %27 = load ptr, ptr %26, align 8, !tbaa !136
  %.not.i = icmp eq ptr %27, null
  br i1 %.not.i, label %28, label %get_maintpath.exit

28:                                               ; preds = %4
  %29 = load ptr, ptr %25, align 8, !tbaa !137
  br label %get_maintpath.exit

get_maintpath.exit:                               ; preds = %4, %28
  %30 = phi ptr [ %29, %28 ], [ %27, %4 ]
  %31 = call ptr @strbuf_realpath(ptr noundef nonnull %5, ptr noundef %30, i32 noundef 1) #21
  %32 = call ptr @strbuf_detach(ptr noundef nonnull %5, ptr noundef null) #21
  call void @llvm.lifetime.end.p0(i64 24, ptr nonnull %5) #21
  call void @llvm.lifetime.start.p0(i64 8, ptr nonnull %9) #21
  call void @llvm.lifetime.start.p0(i64 72, ptr nonnull %10) #21
  call void @llvm.memset.p0.i64(ptr noundef nonnull align 8 dereferenceable(72) %10, i8 0, i64 72, i1 false)
  %33 = call i32 @parse_options(i32 noundef %0, ptr noundef %1, ptr noundef %2, ptr noundef nonnull %8, ptr noundef nonnull @builtin_maintenance_unregister_usage, i32 noundef 0) #21
  %.not = icmp eq i32 %33, 0
  br i1 %.not, label %35, label %34

34:                                               ; preds = %get_maintpath.exit
  call void @usage_with_options(ptr noundef nonnull @builtin_maintenance_unregister_usage, ptr noundef nonnull %8) #22
  unreachable

35:                                               ; preds = %get_maintpath.exit
  %36 = load ptr, ptr %7, align 8, !tbaa !26
  %.not26 = icmp eq ptr %36, null
  br i1 %.not26, label %.thread, label %37

37:                                               ; preds = %35
  call void @git_configset_init(ptr noundef nonnull %10) #21
  %38 = load ptr, ptr %7, align 8, !tbaa !26
  %39 = call i32 @git_configset_add_file(ptr noundef nonnull %10, ptr noundef %38) #21
  %.pr = load ptr, ptr %7, align 8, !tbaa !26
  %.not27 = icmp eq ptr %.pr, null
  br i1 %.not27, label %.thread, label %40

40:                                               ; preds = %37
  %41 = call i32 @git_configset_get_string_multi(ptr noundef nonnull %10, ptr noundef nonnull @.str.268, ptr noundef nonnull %9) #21
  %.not29 = icmp eq i32 %41, 0
  br i1 %.not29, label %44, label %.critedge37

.thread:                                          ; preds = %35, %37
  %42 = load ptr, ptr @the_repository, align 8, !tbaa !42
  %43 = call i32 @repo_config_get_string_multi(ptr noundef %42, ptr noundef nonnull @.str.268, ptr noundef nonnull %9) #21
  %.not28 = icmp eq i32 %43, 0
  br i1 %.not28, label %44, label %.critedge37

44:                                               ; preds = %.thread, %40
  %45 = load ptr, ptr %9, align 8, !tbaa !138
  %46 = load ptr, ptr %45, align 8, !tbaa !83
  %.not3043 = icmp eq ptr %46, null
  br i1 %.not3043, label %.critedge37, label %.lr.ph

.lr.ph:                                           ; preds = %44
  %47 = getelementptr inbounds nuw i8, ptr %45, i64 8
  %48 = load i64, ptr %47, align 8, !tbaa !62
  %49 = getelementptr inbounds nuw %struct.string_list_item, ptr %46, i64 %48
  %.not48 = icmp eq i64 %48, 0
  br i1 %.not48, label %.critedge37, label %.lr.ph47

50:                                               ; preds = %.lr.ph47
  %51 = getelementptr inbounds nuw i8, ptr %.0234446, i64 16
  %52 = icmp ult ptr %51, %49
  br i1 %52, label %.lr.ph47, label %.critedge37

.lr.ph47:                                         ; preds = %.lr.ph, %50
  %.0234446 = phi ptr [ %51, %50 ], [ %46, %.lr.ph ]
  %53 = load ptr, ptr %.0234446, align 8, !tbaa !84
  %54 = call i32 @strcmp(ptr noundef nonnull dereferenceable(1) %32, ptr noundef nonnull dereferenceable(1) %53) #25
  %.not31 = icmp eq i32 %54, 0
  br i1 %.not31, label %.critedge, label %50

.critedge:                                        ; preds = %.lr.ph47
  %55 = load ptr, ptr %7, align 8, !tbaa !26
  %.not34 = icmp eq ptr %55, null
  br i1 %.not34, label %56, label %.thread39

56:                                               ; preds = %.critedge
  %57 = call ptr @git_global_config() #21
  store ptr %57, ptr %7, align 8, !tbaa !26
  %.not35 = icmp eq ptr %57, null
  br i1 %.not35, label %58, label %.thread39

58:                                               ; preds = %56
  %59 = call fastcc ptr @_(ptr noundef nonnull @.str.271)
  call void (ptr, ...) @die(ptr noundef %59) #22
  unreachable

.thread39:                                        ; preds = %.critedge, %56
  %.042 = phi ptr [ %57, %56 ], [ null, %.critedge ]
  %60 = phi ptr [ %57, %56 ], [ %55, %.critedge ]
  %61 = load ptr, ptr @the_repository, align 8, !tbaa !42
  %62 = call i32 @repo_config_set_multivar_in_file_gently(ptr noundef %61, ptr noundef nonnull %60, ptr noundef nonnull @.str.268, ptr noundef null, ptr noundef nonnull %32, ptr noundef null, i32 noundef 3) #21
  call void @free(ptr noundef %.042) #21
  %.not36 = icmp eq i32 %62, 0
  br i1 %.not36, label %72, label %63

63:                                               ; preds = %.thread39
  %64 = load i32, ptr %6, align 4, !tbaa !4
  %65 = icmp eq i32 %64, 0
  %66 = icmp eq i32 %62, 5
  %or.cond = or i1 %66, %65
  br i1 %or.cond, label %67, label %72

67:                                               ; preds = %63
  %68 = call fastcc ptr @_(ptr noundef nonnull @.str.275)
  call void (ptr, ...) @die(ptr noundef %68, ptr noundef nonnull @.str.268, ptr noundef nonnull %32) #22
  unreachable

.critedge37:                                      ; preds = %50, %.lr.ph, %44, %40, %.thread
  %69 = load i32, ptr %6, align 4, !tbaa !4
  %.not33 = icmp eq i32 %69, 0
  br i1 %.not33, label %70, label %72

70:                                               ; preds = %.critedge37
  %71 = call fastcc ptr @_(ptr noundef nonnull @.str.276)
  call void (ptr, ...) @die(ptr noundef %71, ptr noundef %32) #22
  unreachable

72:                                               ; preds = %.thread39, %63, %.critedge37
  call void @git_configset_clear(ptr noundef nonnull %10) #21
  call void @free(ptr noundef %32) #21
  call void @llvm.lifetime.end.p0(i64 72, ptr nonnull %10) #21
  call void @llvm.lifetime.end.p0(i64 8, ptr nonnull %9) #21
  call void @llvm.lifetime.end.p0(i64 264, ptr nonnull %8) #21
  call void @llvm.lifetime.end.p0(i64 8, ptr nonnull %7) #21
  call void @llvm.lifetime.end.p0(i64 4, ptr nonnull %6) #21
  ret i32 0
}